; ModuleID = '53/919.c'
source_filename = "53/919.c"
target datalayout = "e-m:e-p270:32:32-p271:32:32-p272:64:64-i64:64-f80:128-n8:16:32:64-S128"
target triple = "x86_64-pc-linux-gnu"

@.str = private unnamed_addr constant [3 x i8] c"%d\00", align 1
@.str.1 = private unnamed_addr constant [4 x i8] c",%d\00", align 1

; Function Attrs: noinline nounwind uwtable
define dso_local void @main() #0 {
  %1 = alloca i32, align 4
  %2 = alloca [300 x i32], align 16
  %3 = alloca i32, align 4
  %4 = alloca i32, align 4
  %5 = alloca i32, align 4
  %6 = alloca i32, align 4
  store i32 0, i32* %4, align 4
  store i32 0, i32* %5, align 4
  %7 = call i32 (i8*, ...) @__isoc99_scanf(i8* getelementptr inbounds ([3 x i8], [3 x i8]* @.str, i64 0, i64 0), i32* %1)
  store i32 0, i32* %3, align 4
  br label %8

8:                                                ; preds = %17, %0
  %9 = load i32, i32* %3, align 4
  %10 = load i32, i32* %1, align 4
  %11 = icmp slt i32 %9, %10
  br i1 %11, label %12, label %20

12:                                               ; preds = %8
  %13 = load i32, i32* %3, align 4
  %14 = sext i32 %13 to i64
  %15 = getelementptr inbounds [300 x i32], [300 x i32]* %2, i64 0, i64 %14
  %16 = call i32 (i8*, ...) @__isoc99_scanf(i8* getelementptr inbounds ([3 x i8], [3 x i8]* @.str, i64 0, i64 0), i32* %15)
  br label %17

17:                                               ; preds = %12
  %18 = load i32, i32* %3, align 4
  %19 = add nsw i32 %18, 1
  store i32 %19, i32* %3, align 4
  br label %8

20:                                               ; preds = %8
  store i32 0, i32* %3, align 4
  br label %21

21:                                               ; preds = %68, %20
  %22 = load i32, i32* %3, align 4
  %23 = load i32, i32* %1, align 4
  %24 = icmp slt i32 %22, %23
  br i1 %24, label %25, label %71

25:                                               ; preds = %21
  store i32 1, i32* %6, align 4
  store i32 0, i32* %5, align 4
  br label %26

26:                                               ; preds = %42, %25
  %27 = load i32, i32* %5, align 4
  %28 = load i32, i32* %3, align 4
  %29 = icmp slt i32 %27, %28
  br i1 %29, label %30, label %45

30:                                               ; preds = %26
  %31 = load i32, i32* %5, align 4
  %32 = sext i32 %31 to i64
  %33 = getelementptr inbounds [300 x i32], [300 x i32]* %2, i64 0, i64 %32
  %34 = load i32, i32* %33, align 4
  %35 = load i32, i32* %3, align 4
  %36 = sext i32 %35 to i64
  %37 = getelementptr inbounds [300 x i32], [300 x i32]* %2, i64 0, i64 %36
  %38 = load i32, i32* %37, align 4
  %39 = icmp eq i32 %34, %38
  br i1 %39, label %40, label %41

40:                                               ; preds = %30
  store i32 0, i32* %6, align 4
  br label %45

41:                                               ; preds = %30
  br label %42

42:                                               ; preds = %41
  %43 = load i32, i32* %5, align 4
  %44 = add nsw i32 %43, 1
  store i32 %44, i32* %5, align 4
  br label %26

45:                                               ; preds = %40, %26
  %46 = load i32, i32* %4, align 4
  %47 = icmp ne i32 %46, 0
  br i1 %47, label %48, label %57

48:                                               ; preds = %45
  %49 = load i32, i32* %6, align 4
  %50 = icmp ne i32 %49, 0
  br i1 %50, label %51, label %57

51:                                               ; preds = %48
  %52 = load i32, i32* %3, align 4
  %53 = sext i32 %52 to i64
  %54 = getelementptr inbounds [300 x i32], [300 x i32]* %2, i64 0, i64 %53
  %55 = load i32, i32* %54, align 4
  %56 = call i32 (i8*, ...) @printf(i8* getelementptr inbounds ([4 x i8], [4 x i8]* @.str.1, i64 0, i64 0), i32 %55)
  br label %67

57:                                               ; preds = %48, %45
  %58 = load i32, i32* %6, align 4
  %59 = icmp ne i32 %58, 0
  br i1 %59, label %60, label %66

60:                                               ; preds = %57
  %61 = load i32, i32* %3, align 4
  %62 = sext i32 %61 to i64
  %63 = getelementptr inbounds [300 x i32], [300 x i32]* %2, i64 0, i64 %62
  %64 = load i32, i32* %63, align 4
  %65 = call i32 (i8*, ...) @printf(i8* getelementptr inbounds ([3 x i8], [3 x i8]* @.str, i64 0, i64 0), i32 %64)
  store i32 1, i32* %4, align 4
  br label %66

66:                                               ; preds = %60, %57
  br label %67

67:                                               ; preds = %66, %51
  br label %68

68:                                               ; preds = %67
  %69 = load i32, i32* %3, align 4
  %70 = add nsw i32 %69, 1
  store i32 %70, i32* %3, align 4
  br label %21

71:                                               ; preds = %21
  ret void
}

declare dso_local i32 @__isoc99_scanf(i8*, ...) #1

declare dso_local i32 @printf(i8*, ...) #1


!llvm.module.flags = !{!0}
!llvm.ident = !{!1}

!0 = !{i32 1, !"wchar_size", i32 4}
!1 = !{!"clang version 10.0.0-4ubuntu1 "}
